LX51 LINKER/LOCATER V4.66.97.0                                                          02/18/2023  13:05:27  PAGE 1


LX51 LINKER/LOCATER V4.66.97.0, INVOKED BY:
C:\KEIL_V5\C51\BIN\LX51.EXE .\Objects\STARTUP.obj, .\Objects\main.obj, .\Objects\Delay.obj, .\Objects\LCD1602.obj, .\Obj
>> ects\Timer0.obj, .\Objects\ds1302.obj, .\Objects\Key.obj TO .\Objects\ds1302 PRINT (.\Listings\ds1302.map) REMOVEUNUS
>> ED


CPU MODE:     8051 MODE
MEMORY MODEL: SMALL


INPUT MODULES INCLUDED:
  .\Objects\STARTUP.obj (?C_STARTUP)
         COMMENT TYPE 1: A51 / ASM51 Assembler
  .\Objects\main.obj (MAIN)
         COMMENT TYPE 0: C51 V9.60.0.0
  .\Objects\Delay.obj (DELAY)
         COMMENT TYPE 0: C51 V9.60.0.0
  .\Objects\LCD1602.obj (LCD1602)
         COMMENT TYPE 0: C51 V9.60.0.0
  .\Objects\Timer0.obj (TIMER0)
         COMMENT TYPE 0: C51 V9.60.0.0
  .\Objects\ds1302.obj (DS1302)
         COMMENT TYPE 0: C51 V9.60.0.0
  .\Objects\Key.obj (KEY)
         COMMENT TYPE 0: C51 V9.60.0.0
  C:\KEIL_V5\C51\LIB\C51S.LIB (?C_INIT)
         COMMENT TYPE 1: A51 / ASM51 Assembler
  C:\KEIL_V5\C51\LIB\C51S.LIB (?C?SCDIV)
         COMMENT TYPE 1: A51 / ASM51 Assembler
  C:\KEIL_V5\C51\LIB\C51S.LIB (?C?CLDOPTR)
         COMMENT TYPE 1: A51 / ASM51 Assembler
  C:\KEIL_V5\C51\LIB\C51S.LIB (?C?IMUL)
         COMMENT TYPE 1: A51 / ASM51 Assembler
  C:\KEIL_V5\C51\LIB\C51S.LIB (?C?UIDIV)
         COMMENT TYPE 1: A51 / ASM51 Assembler


ACTIVE MEMORY CLASSES OF MODULE:  .\Objects\ds1302 (?C_STARTUP)

BASE        START       END         USED      MEMORY CLASS
==========================================================
C:000000H   C:000000H   C:00FFFFH   0008B2H   CODE
I:000000H   I:000000H   I:0000FFH   000001H   IDATA
I:000000H   I:000000H   I:00007FH   000024H   DATA
C:000000H   C:000000H   C:00FFFFH   00001BH   CONST


MEMORY MAP OF MODULE:  .\Objects\ds1302 (?C_STARTUP)


START     STOP      LENGTH    ALIGN  RELOC    MEMORY CLASS   SEGMENT NAME
=========================================================================

* * * * * * * * * * *   D A T A   M E M O R Y   * * * * * * * * * * * * *
000000H   000007H   000008H   ---    AT..     DATA           "REG BANK 0"
000008H   000013H   00000CH   BYTE   UNIT     DATA           ?DT?DS1302
000014H   00001CH   000009H   BYTE   UNIT     DATA           _DATA_GROUP_
00001DH   000023H   000007H   BYTE   UNIT     DATA           ?DT?MAIN
000024H   000024H   000001H   BYTE   UNIT     IDATA          ?STACK

* * * * * * * * * * *   C O D E   M E M O R Y   * * * * * * * * * * * * *
000000H   000002H   000003H   ---    OFFS..   CODE           ?CO??C_STARTUP?0
000003H   000007H   000005H   BYTE   UNIT     CODE           ?PR?DS1302_INIT?DS1302
000008H   00000AH   000003H   ---    ---      **GAP**
00000BH   00000DH   000003H   BYTE   OFFS..   CODE           ?MAIN?0000B
00000EH   0002C0H   0002B3H   BYTE   UNIT     CODE           ?PR?TIMESET?MAIN
LX51 LINKER/LOCATER V4.66.97.0                                                        02/18/2023  13:05:27  PAGE 2


0002C1H   000382H   0000C2H   BYTE   UNIT     CODE           ?PR?DS1302_SETTIME?DS1302
000383H   000438H   0000B6H   BYTE   UNIT     CODE           ?C?LIB_CODE
000439H   0004CFH   000097H   BYTE   UNIT     CODE           ?PR?TIMESHOW?MAIN
0004D0H   000560H   000091H   BYTE   UNIT     CODE           ?PR?DS1302_READTIME?DS1302
000561H   0005ECH   00008CH   BYTE   UNIT     CODE           ?C_C51STARTUP
0005EDH   00064FH   000063H   BYTE   UNIT     CODE           ?PR?_DS1302_WRITEBYTE?DS1302
000650H   0006ADH   00005EH   BYTE   UNIT     CODE           ?PR?_DS1302_READBYTE?DS1302
0006AEH   00070AH   00005DH   BYTE   UNIT     CODE           ?PR?MAIN?MAIN
00070BH   000741H   000037H   BYTE   UNIT     CODE           ?PR?TIMER0_ROUNTINE?MAIN
000742H   000772H   000031H   BYTE   UNIT     CODE           ?PR?_LCD_POW?LCD1602
000773H   0007A3H   000031H   BYTE   UNIT     CODE           ?PR?KEY?KEY
0007A4H   0007D4H   000031H   BYTE   UNIT     CODE           ?PR?KEY2?KEY
0007D5H   0007F8H   000024H   BYTE   UNIT     CODE           ?PR?_LCD_SHOWNUM?LCD1602
0007F9H   00081BH   000023H   BYTE   UNIT     CODE           ?PR?_LCD_SHOWSTRING?LCD1602
00081CH   000839H   00001EH   BYTE   UNIT     CODE           ?PR?_LCD_WRITEDATA?LCD1602
00083AH   000857H   00001EH   BYTE   UNIT     CODE           ?PR?_LCD_SETCURSOR?LCD1602
000858H   00086CH   000015H   BYTE   UNIT     CODE           ?PR?_DELAY?DELAY
00086DH   000880H   000014H   BYTE   UNIT     CODE           ?PR?LCD_INIT?LCD1602
000881H   000892H   000012H   BYTE   UNIT     CODE           ?PR?TIMER_INIT?TIMER0
000893H   0008A1H   00000FH   BYTE   UNIT     CODE           ?PR?LCD_DELAY?LCD1602
0008A2H   0008ABH   00000AH   BYTE   UNIT     CODE           ?PR?_LCD_WRITECOMMAND?LCD1602
0008ACH   0008B4H   000009H   BYTE   UNIT     CODE           ?C_INITSEG
0008B5H   0008CFH   00001BH   BYTE   UNIT     CONST          ?CO?MAIN

* * * * * * * * *   R E M O V E D     S E G M E N T S   * * * * * * * *
   *DEL*:           00000AH   BYTE   UNIT     CODE           ?PR?_LCD_SHOWCHAR?LCD1602
   *DEL*:           00004AH   BYTE   UNIT     CODE           ?PR?_LCD_SHOWSIGNEDNUM?LCD1602
   *DEL*:           000007H   BYTE   UNIT     DATA           ?DT?_LCD_SHOWSIGNEDNUM?LCD1602
   *DEL*:           00004BH   BYTE   UNIT     CODE           ?PR?_LCD_SHOWHEXNUM?LCD1602
   *DEL*:           000005H   BYTE   UNIT     DATA           ?DT?_LCD_SHOWHEXNUM?LCD1602
   *DEL*:           00003DH   BYTE   UNIT     CODE           ?PR?_LCD_SHOWBINNUM?LCD1602
   *DEL*:           000005H   BYTE   UNIT     DATA           ?DT?_LCD_SHOWBINNUM?LCD1602



OVERLAY MAP OF MODULE:   .\Objects\ds1302 (?C_STARTUP)


FUNCTION/MODULE                  BIT_GROUP   DATA_GROUP 
--> CALLED FUNCTION/MODULE      START  STOP  START  STOP
========================================================
?C_C51STARTUP                   ----- -----  ----- -----
  +--> MAIN/MAIN
  +--> ?C_INITSEG

MAIN/MAIN                       ----- -----  ----- -----
  +--> TIMER_INIT/TIMER0
  +--> LCD_INIT/LCD1602
  +--> DS1302_INIT/DS1302
  +--> DS1302_SETTIME/DS1302
  +--> _LCD_SHOWSTRING/LCD1602
  +--> KEY/KEY
  +--> KEY2/KEY
  +--> TIMESHOW/MAIN
  +--> TIMESET/MAIN

TIMER_INIT/TIMER0               ----- -----  ----- -----

LCD_INIT/LCD1602                ----- -----  ----- -----
  +--> _LCD_WRITECOMMAND/LCD1602

_LCD_WRITECOMMAND/LCD1602       ----- -----  ----- -----
  +--> LCD_DELAY/LCD1602

LCD_DELAY/LCD1602               ----- -----  ----- -----
LX51 LINKER/LOCATER V4.66.97.0                                                        02/18/2023  13:05:27  PAGE 3



DS1302_INIT/DS1302              ----- -----  ----- -----

DS1302_SETTIME/DS1302           ----- -----  ----- -----
  +--> _DS1302_WRITEBYTE/DS1302

_DS1302_WRITEBYTE/DS1302        ----- -----  ----- -----

_LCD_SHOWSTRING/LCD1602         ----- -----  0014H 0016H
  +--> _LCD_SETCURSOR/LCD1602
  +--> _LCD_WRITEDATA/LCD1602

_LCD_SETCURSOR/LCD1602          ----- -----  ----- -----
  +--> _LCD_WRITECOMMAND/LCD1602

_LCD_WRITEDATA/LCD1602          ----- -----  ----- -----
  +--> LCD_DELAY/LCD1602

KEY/KEY                         ----- -----  0014H 0014H
  +--> _DELAY/DELAY

_DELAY/DELAY                    ----- -----  ----- -----

KEY2/KEY                        ----- -----  0014H 0014H
  +--> _DELAY/DELAY

TIMESHOW/MAIN                   ----- -----  ----- -----
  +--> _LCD_SHOWSTRING/LCD1602
  +--> _LCD_SHOWNUM/LCD1602
  +--> DS1302_READTIME/DS1302

_LCD_SHOWNUM/LCD1602            ----- -----  0014H 0018H
  +--> _LCD_SETCURSOR/LCD1602
  +--> _LCD_POW/LCD1602
  +--> _LCD_WRITEDATA/LCD1602

_LCD_POW/LCD1602                ----- -----  0019H 001CH

DS1302_READTIME/DS1302          ----- -----  ----- -----
  +--> _DS1302_READBYTE/DS1302

_DS1302_READBYTE/DS1302         ----- -----  ----- -----

TIMESET/MAIN                    ----- -----  ----- -----
  +--> _LCD_SHOWSTRING/LCD1602
  +--> _LCD_SHOWNUM/LCD1602
  +--> DS1302_SETTIME/DS1302

?C_INITSEG                      ----- -----  ----- -----

*** NEW ROOT ******************

TIMER0_ROUNTINE/MAIN            ----- -----  ----- -----



PUBLIC SYMBOLS OF MODULE:  .\Objects\ds1302 (?C_STARTUP)


      VALUE       CLASS    TYPE      PUBLIC SYMBOL NAME
      =================================================
*DEL*:00000000H   DATA     BYTE      ?_LCD_ShowBinNum?BYTE
*DEL*:00000000H   DATA     BYTE      ?_LCD_ShowHexNum?BYTE
      00000014H   DATA     BYTE      ?_LCD_ShowNum?BYTE
*DEL*:00000000H   DATA     BYTE      ?_LCD_ShowSignedNum?BYTE
LX51 LINKER/LOCATER V4.66.97.0                                                        02/18/2023  13:05:27  PAGE 4


      010003A5H   CODE     ---       ?C?CLDOPTR
      00000000H   NUMBER   ---       ?C?CODESEG
      010003D2H   CODE     ---       ?C?IMUL
      01000383H   CODE     ---       ?C?SCDIV
      010003E4H   CODE     ---       ?C?UIDIV
      00000000H   NUMBER   ---       ?C?XDATASEG
      010005A8H   CODE     ---       ?C_START
      01000000H   CODE     ---       ?C_STARTUP
      01000858H   CODE     ---       _Delay
      01000650H   CODE     ---       _DS1302_ReadByte
      010005EDH   CODE     ---       _DS1302_WriteByte
      0100074CH   CODE     ---       _LCD_Pow
      0100083AH   CODE     ---       _LCD_SetCursor
*DEL*:00000000H   CODE     ---       _LCD_ShowBinNum
*DEL*:00000000H   CODE     ---       _LCD_ShowChar
*DEL*:00000000H   CODE     ---       _LCD_ShowHexNum
      010007D5H   CODE     ---       _LCD_ShowNum
*DEL*:00000000H   CODE     ---       _LCD_ShowSignedNum
      010007F9H   CODE     ---       _LCD_ShowString
      010008A2H   CODE     ---       _LCD_WriteCommand
      01000830H   CODE     ---       _LCD_WriteData
*SFR* 000000D0H.6 DATA     BIT       AC
*SFR* 000000E0H   DATA     BYTE      ACC
*SFR* 000000A0H.0 DATA     BIT       add
*SFR* 000000F0H   DATA     BYTE      B
*SFR* 000000C8H.1 DATA     BIT       C_T2
*SFR* 000000C8H.0 DATA     BIT       CP_RL2
*SFR* 000000D0H.7 DATA     BIT       CY
      0000000FH   DATA     BYTE      DATE
*SFR* 00000083H   DATA     BYTE      DPH
*SFR* 00000082H   DATA     BYTE      DPL
*SFR* 000000B0H.5 DATA     BIT       DS1302_CE
      01000003H   CODE     ---       DS1302_Init
*SFR* 000000B0H.4 DATA     BIT       DS1302_IO
      010004D0H   CODE     ---       DS1302_ReadTime
*SFR* 000000B0H.6 DATA     BIT       DS1302_SCLK
      010002C1H   CODE     ---       DS1302_SetTime
*SFR* 000000A8H.7 DATA     BIT       EA
*SFR* 00000090H.6 DATA     BIT       En
*SFR* 000000A8H.4 DATA     BIT       ES
*SFR* 000000A8H.1 DATA     BIT       ET0
*SFR* 000000A8H.3 DATA     BIT       ET1
*SFR* 000000A8H.5 DATA     BIT       ET2
*SFR* 000000A8H.0 DATA     BIT       EX0
*SFR* 000000A8H.2 DATA     BIT       EX1
*SFR* 000000C8H.3 DATA     BIT       EXEN2
*SFR* 000000C8H.6 DATA     BIT       EXF2
*SFR* 000000D0H.5 DATA     BIT       F0
*SFR* 000000D0H.1 DATA     BIT       F1
      00000022H   DATA     BYTE      Flash
      00000012H   DATA     BYTE      HOUR
*SFR* 000000A8H   DATA     BYTE      IE
*SFR* 00000088H.1 DATA     BIT       IE0
*SFR* 00000088H.3 DATA     BIT       IE1
*SFR* 000000B0H.2 DATA     BIT       INT0
*SFR* 000000B0H.3 DATA     BIT       INT1
*SFR* 000000B8H   DATA     BYTE      IP
*SFR* 00000088H.0 DATA     BIT       IT0
*SFR* 00000088H.2 DATA     BIT       IT1
      01000773H   CODE     ---       Key
      010007A4H   CODE     ---       Key2
      00000023H   DATA     BYTE      Keynum
      00000021H   DATA     BYTE      Keynum2
      01000899H   CODE     ---       LCD_Delay
*SFR* 000000A0H.7 DATA     BIT       LCD_EN
LX51 LINKER/LOCATER V4.66.97.0                                                        02/18/2023  13:05:27  PAGE 5


      0100086DH   CODE     ---       LCD_Init
*SFR* 000000A0H.6 DATA     BIT       LCD_RS
*SFR* 000000A0H.5 DATA     BIT       LCD_RW
*SFR* 000000A0H.3 DATA     BIT       led_c
      010006AEH   CODE     ---       main
      00000013H   DATA     BYTE      MINUTE
      00000020H   DATA     BYTE      MODE
      00000008H   DATA     BYTE      MONTH
*SFR* 000000D0H.2 DATA     BIT       OV
*SFR* 000000D0H.0 DATA     BIT       P
*SFR* 00000080H   DATA     BYTE      P0
*SFR* 00000080H.0 DATA     BIT       P0_0
*SFR* 00000080H.1 DATA     BIT       P0_1
*SFR* 00000080H.2 DATA     BIT       P0_2
*SFR* 00000080H.3 DATA     BIT       P0_3
*SFR* 00000080H.4 DATA     BIT       P0_4
*SFR* 00000080H.5 DATA     BIT       P0_5
*SFR* 00000080H.6 DATA     BIT       P0_6
*SFR* 00000080H.7 DATA     BIT       P0_7
*SFR* 00000090H   DATA     BYTE      P1
*SFR* 00000090H.0 DATA     BIT       P1_0
*SFR* 00000090H.1 DATA     BIT       P1_1
*SFR* 00000090H.2 DATA     BIT       P1_2
*SFR* 00000090H.3 DATA     BIT       P1_3
*SFR* 00000090H.4 DATA     BIT       P1_4
*SFR* 00000090H.5 DATA     BIT       P1_5
*SFR* 00000090H.6 DATA     BIT       P1_6
*SFR* 00000090H.7 DATA     BIT       P1_7
*SFR* 000000A0H   DATA     BYTE      P2
*SFR* 000000A0H.0 DATA     BIT       P2_0
*SFR* 000000A0H.1 DATA     BIT       P2_1
*SFR* 000000A0H.2 DATA     BIT       P2_2
*SFR* 000000A0H.3 DATA     BIT       P2_3
*SFR* 000000A0H.4 DATA     BIT       P2_4
*SFR* 000000A0H.5 DATA     BIT       P2_5
*SFR* 000000A0H.6 DATA     BIT       P2_6
*SFR* 000000A0H.7 DATA     BIT       P2_7
*SFR* 000000B0H   DATA     BYTE      P3
*SFR* 000000B0H.0 DATA     BIT       P3_0
*SFR* 000000B0H.1 DATA     BIT       P3_1
*SFR* 000000B0H.2 DATA     BIT       P3_2
*SFR* 000000B0H.3 DATA     BIT       P3_3
*SFR* 000000B0H.4 DATA     BIT       P3_4
*SFR* 000000B0H.5 DATA     BIT       P3_5
*SFR* 000000B0H.6 DATA     BIT       P3_6
*SFR* 000000B0H.7 DATA     BIT       P3_7
*SFR* 00000087H   DATA     BYTE      PCON
*SFR* 000000B8H.4 DATA     BIT       PS
*SFR* 000000D0H   DATA     BYTE      PSW
*SFR* 000000B8H.1 DATA     BIT       PT0
*SFR* 000000B8H.3 DATA     BIT       PT1
*SFR* 000000B8H.5 DATA     BIT       PT2
*SFR* 000000B8H.0 DATA     BIT       PX0
*SFR* 000000B8H.2 DATA     BIT       PX1
*SFR* 00000098H.2 DATA     BIT       RB8
*SFR* 000000CBH   DATA     BYTE      RCAP2H
*SFR* 000000CAH   DATA     BYTE      RCAP2L
*SFR* 000000C8H.5 DATA     BIT       RCLK
*SFR* 000000B0H.7 DATA     BIT       RD
*SFR* 00000098H.4 DATA     BIT       REN
*SFR* 00000098H.0 DATA     BIT       RI
*SFR* 000000D0H.3 DATA     BIT       RS0
*SFR* 000000D0H.4 DATA     BIT       RS1
*SFR* 000000B0H.0 DATA     BIT       RXD
*SFR* 00000099H   DATA     BYTE      SBUF
LX51 LINKER/LOCATER V4.66.97.0                                                        02/18/2023  13:05:27  PAGE 6


*SFR* 00000098H   DATA     BYTE      SCON
      00000011H   DATA     BYTE      SECOND
*SFR* 000000A0H.4 DATA     BIT       select
*SFR* 00000098H.7 DATA     BIT       SM0
*SFR* 00000098H.6 DATA     BIT       SM1
*SFR* 00000098H.5 DATA     BIT       SM2
*SFR* 00000081H   DATA     BYTE      SP
*SFR* 000000A0H.1 DATA     BIT       subtracat
*SFR* 000000B0H.4 DATA     BIT       T0
*SFR* 000000B0H.5 DATA     BIT       T1
*SFR* 00000090H.0 DATA     BIT       T2
*SFR* 000000C8H   DATA     BYTE      T2CON
*SFR* 00000090H.1 DATA     BIT       T2EX
*SFR* 000000C9H   DATA     BYTE      T2MOD
*SFR* 00000098H.3 DATA     BIT       TB8
*SFR* 000000C8H.4 DATA     BIT       TCLK
*SFR* 00000088H   DATA     BYTE      TCON
*SFR* 00000088H.5 DATA     BIT       TF0
*SFR* 00000088H.7 DATA     BIT       TF1
*SFR* 000000C8H.7 DATA     BIT       TF2
*SFR* 0000008CH   DATA     BYTE      TH0
*SFR* 0000008DH   DATA     BYTE      TH1
*SFR* 000000CDH   DATA     BYTE      TH2
*SFR* 00000098H.1 DATA     BIT       TI
      00000009H   DATA     ---       Time
      0100070BH   CODE     ---       Timer0_Rountine
      01000881H   CODE     ---       Timer_Init
      0100000EH   CODE     ---       Timeset
      0000001FH   DATA     BYTE      TimeSetSelect
      01000439H   CODE     ---       Timeshow
*SFR* 0000008AH   DATA     BYTE      TL0
*SFR* 0000008BH   DATA     BYTE      TL1
*SFR* 000000CCH   DATA     BYTE      TL2
*SFR* 00000089H   DATA     BYTE      TMOD
*SFR* 00000088H.4 DATA     BIT       TR0
*SFR* 00000088H.6 DATA     BIT       TR1
*SFR* 000000C8H.2 DATA     BIT       TR2
*SFR* 000000B0H.1 DATA     BIT       TXD
*SFR* 000000B0H.6 DATA     BIT       WR
      00000010H   DATA     BYTE      YEAR



SYMBOL TABLE OF MODULE:  .\Objects\ds1302 (?C_STARTUP)

      VALUE       REP       CLASS    TYPE      SYMBOL NAME
      ====================================================
      ---         MODULE    ---      ---       ?C_STARTUP
      01000000H   PUBLIC    CODE     ---       ?C_STARTUP
      000000E0H   SYMBOL    DATA     ---       ACC
      000000F0H   SYMBOL    DATA     ---       B
      00000083H   SYMBOL    DATA     ---       DPH
      00000082H   SYMBOL    DATA     ---       DPL
      00000000H   SYMBOL    NUMBER   ---       IBPSTACK
      00000100H   SYMBOL    NUMBER   ---       IBPSTACKTOP
      00000080H   SYMBOL    NUMBER   ---       IDATALEN
      01000564H   SYMBOL    CODE     ---       IDATALOOP
      00000000H   SYMBOL    NUMBER   ---       PBPSTACK
      00000100H   SYMBOL    NUMBER   ---       PBPSTACKTOP
      00000000H   SYMBOL    NUMBER   ---       PDATALEN
      00000000H   SYMBOL    NUMBER   ---       PDATASTART
      00000000H   SYMBOL    NUMBER   ---       PPAGE
      00000000H   SYMBOL    NUMBER   ---       PPAGEENABLE
      000000A0H   SYMBOL    DATA     ---       PPAGE_SFR
      00000081H   SYMBOL    DATA     ---       SP
LX51 LINKER/LOCATER V4.66.97.0                                                        02/18/2023  13:05:27  PAGE 7


      01000561H   SYMBOL    CODE     ---       STARTUP1
      00000000H   SYMBOL    NUMBER   ---       XBPSTACK
      00000000H   SYMBOL    NUMBER   ---       XBPSTACKTOP
      00000000H   SYMBOL    NUMBER   ---       XDATALEN
      00000000H   SYMBOL    NUMBER   ---       XDATASTART
      01000000H   LINE      CODE     ---       #126
      01000561H   LINE      CODE     ---       #133
      01000563H   LINE      CODE     ---       #134
      01000564H   LINE      CODE     ---       #135
      01000565H   LINE      CODE     ---       #136
      01000567H   LINE      CODE     ---       #185
      0100056AH   LINE      CODE     ---       #196

      ---         MODULE    ---      ---       MAIN
      00000023H   PUBLIC    DATA     BYTE      Keynum
      00000022H   PUBLIC    DATA     BYTE      Flash
      00000021H   PUBLIC    DATA     BYTE      Keynum2
      00000020H   PUBLIC    DATA     BYTE      MODE
      0000001FH   PUBLIC    DATA     BYTE      TimeSetSelect
      0100070BH   PUBLIC    CODE     ---       Timer0_Rountine
      010006AEH   PUBLIC    CODE     ---       main
      0100000EH   PUBLIC    CODE     ---       Timeset
      01000439H   PUBLIC    CODE     ---       Timeshow
      00000080H   SFRSYM    DATA     BYTE      P0
      00000090H   SFRSYM    DATA     BYTE      P1
      000000A0H   SFRSYM    DATA     BYTE      P2
      000000B0H   SFRSYM    DATA     BYTE      P3
      000000A0H.4 SFRSYM    DATA     BIT       select
      000000B0H.4 SFRSYM    DATA     BIT       T0
      000000D0H.6 SFRSYM    DATA     BIT       AC
      000000B0H.5 SFRSYM    DATA     BIT       T1
      000000A8H.7 SFRSYM    DATA     BIT       EA
      000000A8H   SFRSYM    DATA     BYTE      IE
      000000B0H.7 SFRSYM    DATA     BIT       RD
      000000A8H.4 SFRSYM    DATA     BIT       ES
      000000B8H   SFRSYM    DATA     BYTE      IP
      00000098H.0 SFRSYM    DATA     BIT       RI
      000000B0H.2 SFRSYM    DATA     BIT       INT0
      000000D0H.7 SFRSYM    DATA     BIT       CY
      00000098H.1 SFRSYM    DATA     BIT       TI
      000000B0H.3 SFRSYM    DATA     BIT       INT1
      000000B8H.4 SFRSYM    DATA     BIT       PS
      00000081H   SFRSYM    DATA     BYTE      SP
      000000D0H.2 SFRSYM    DATA     BIT       OV
      000000B0H.6 SFRSYM    DATA     BIT       WR
      000000A0H.0 SFRSYM    DATA     BIT       add
      00000099H   SFRSYM    DATA     BYTE      SBUF
      00000087H   SFRSYM    DATA     BYTE      PCON
      00000098H   SFRSYM    DATA     BYTE      SCON
      00000089H   SFRSYM    DATA     BYTE      TMOD
      00000088H   SFRSYM    DATA     BYTE      TCON
      00000088H.1 SFRSYM    DATA     BIT       IE0
      00000088H.3 SFRSYM    DATA     BIT       IE1
      000000F0H   SFRSYM    DATA     BYTE      B
      000000E0H   SFRSYM    DATA     BYTE      ACC
      000000A8H.1 SFRSYM    DATA     BIT       ET0
      000000A8H.3 SFRSYM    DATA     BIT       ET1
      00000088H.5 SFRSYM    DATA     BIT       TF0
      00000088H.7 SFRSYM    DATA     BIT       TF1
      00000098H.2 SFRSYM    DATA     BIT       RB8
      0000008CH   SFRSYM    DATA     BYTE      TH0
      000000A8H.0 SFRSYM    DATA     BIT       EX0
      00000088H.0 SFRSYM    DATA     BIT       IT0
      0000008DH   SFRSYM    DATA     BYTE      TH1
      00000098H.3 SFRSYM    DATA     BIT       TB8
LX51 LINKER/LOCATER V4.66.97.0                                                        02/18/2023  13:05:27  PAGE 8


      000000A8H.2 SFRSYM    DATA     BIT       EX1
      00000088H.2 SFRSYM    DATA     BIT       IT1
      000000A0H.1 SFRSYM    DATA     BIT       subtracat
      000000D0H.0 SFRSYM    DATA     BIT       P
      00000098H.7 SFRSYM    DATA     BIT       SM0
      0000008AH   SFRSYM    DATA     BYTE      TL0
      00000098H.6 SFRSYM    DATA     BIT       SM1
      0000008BH   SFRSYM    DATA     BYTE      TL1
      00000098H.5 SFRSYM    DATA     BIT       SM2
      000000B8H.1 SFRSYM    DATA     BIT       PT0
      000000B8H.3 SFRSYM    DATA     BIT       PT1
      000000D0H.3 SFRSYM    DATA     BIT       RS0
      00000088H.4 SFRSYM    DATA     BIT       TR0
      000000D0H.4 SFRSYM    DATA     BIT       RS1
      00000088H.6 SFRSYM    DATA     BIT       TR1
      000000B8H.0 SFRSYM    DATA     BIT       PX0
      000000B8H.2 SFRSYM    DATA     BIT       PX1
      00000083H   SFRSYM    DATA     BYTE      DPH
      00000082H   SFRSYM    DATA     BYTE      DPL
      00000098H.4 SFRSYM    DATA     BIT       REN
      000000B0H.0 SFRSYM    DATA     BIT       RXD
      000000B0H.1 SFRSYM    DATA     BIT       TXD
      000000D0H.5 SFRSYM    DATA     BIT       F0
      000000A0H.3 SFRSYM    DATA     BIT       led_c
      000000D0H   SFRSYM    DATA     BYTE      PSW

      01000439H   BLOCK     CODE     ---       LVL=0
      01000439H   LINE      CODE     ---       #15
      01000439H   LINE      CODE     ---       #16
      01000439H   LINE      CODE     ---       #17
      01000446H   LINE      CODE     ---       #18
      01000453H   LINE      CODE     ---       #19
      01000462H   LINE      CODE     ---       #20
      01000471H   LINE      CODE     ---       #21
      01000473H   LINE      CODE     ---       #23
      01000476H   LINE      CODE     ---       #24
      01000485H   LINE      CODE     ---       #25
      01000494H   LINE      CODE     ---       #26
      010004A3H   LINE      CODE     ---       #27
      010004B2H   LINE      CODE     ---       #28
      010004C1H   LINE      CODE     ---       #29
      ---         BLOCKEND  ---      ---       LVL=0

      0100000EH   BLOCK     CODE     ---       LVL=0
      0100000EH   LINE      CODE     ---       #32
      0100000EH   LINE      CODE     ---       #33
      0100000EH   LINE      CODE     ---       #34
      0100001BH   LINE      CODE     ---       #35
      01000028H   LINE      CODE     ---       #36
      01000037H   LINE      CODE     ---       #37
      01000046H   LINE      CODE     ---       #38
      01000048H   LINE      CODE     ---       #40
      0100004EH   LINE      CODE     ---       #41
      0100004EH   LINE      CODE     ---       #42
      01000050H   LINE      CODE     ---       #43
      01000059H   LINE      CODE     ---       #44
      01000059H   LINE      CODE     ---       #46
      01000062H   LINE      CODE     ---       #47
      01000062H   LINE      CODE     ---       #48
      01000068H   LINE      CODE     ---       #49
      01000076H   LINE      CODE     ---       #51
      01000099H   LINE      CODE     ---       #52
      0100009FH   LINE      CODE     ---       #53
      0100009FH   LINE      CODE     ---       #54
      010000A8H   LINE      CODE     ---       #55
LX51 LINKER/LOCATER V4.66.97.0                                                        02/18/2023  13:05:27  PAGE 9


      010000A8H   LINE      CODE     ---       #56
      010000B3H   LINE      CODE     ---       #57
      010000B3H   LINE      CODE     ---       #58
      010000B3H   LINE      CODE     ---       #59
      010000B3H   LINE      CODE     ---       #60
      010000B5H   LINE      CODE     ---       #61
      010000B9H   LINE      CODE     ---       #62
      010000B9H   LINE      CODE     ---       #63
      010000C4H   LINE      CODE     ---       #64
      010000C4H   LINE      CODE     ---       #65
      010000C4H   LINE      CODE     ---       #67
      010000C6H   LINE      CODE     ---       #68
      010000EBH   LINE      CODE     ---       #69
      010000F9H   LINE      CODE     ---       #70
      01000107H   LINE      CODE     ---       #71
      01000115H   LINE      CODE     ---       #72
      01000115H   LINE      CODE     ---       #74
      0100011EH   LINE      CODE     ---       #75
      0100011EH   LINE      CODE     ---       #76
      01000124H   LINE      CODE     ---       #77
      01000132H   LINE      CODE     ---       #79
      01000158H   LINE      CODE     ---       #80
      0100015EH   LINE      CODE     ---       #81
      0100015EH   LINE      CODE     ---       #82
      01000167H   LINE      CODE     ---       #83
      01000167H   LINE      CODE     ---       #84
      01000172H   LINE      CODE     ---       #85
      01000172H   LINE      CODE     ---       #86
      01000175H   LINE      CODE     ---       #87
      01000175H   LINE      CODE     ---       #88
      01000177H   LINE      CODE     ---       #89
      0100017BH   LINE      CODE     ---       #90
      0100017BH   LINE      CODE     ---       #91
      01000186H   LINE      CODE     ---       #92
      01000189H   LINE      CODE     ---       #93
      01000189H   LINE      CODE     ---       #94
      0100018BH   LINE      CODE     ---       #95
      010001B0H   LINE      CODE     ---       #96
      010001BEH   LINE      CODE     ---       #97
      010001CCH   LINE      CODE     ---       #98
      010001DAH   LINE      CODE     ---       #99
      010001DAH   LINE      CODE     ---       #103
      010001E9H   LINE      CODE     ---       #105
      01000204H   LINE      CODE     ---       #106
      01000213H   LINE      CODE     ---       #107
      0100022EH   LINE      CODE     ---       #108
      0100023DH   LINE      CODE     ---       #109
      01000258H   LINE      CODE     ---       #110
      01000267H   LINE      CODE     ---       #111
      01000282H   LINE      CODE     ---       #112
      01000291H   LINE      CODE     ---       #113
      010002ACH   LINE      CODE     ---       #114
      010002BBH   LINE      CODE     ---       #115
      010002BEH   LINE      CODE     ---       #116
      ---         BLOCKEND  ---      ---       LVL=0

      010006AEH   BLOCK     CODE     ---       LVL=0
      010006AEH   LINE      CODE     ---       #119
      010006AEH   LINE      CODE     ---       #120
      010006AEH   LINE      CODE     ---       #121
      010006B1H   LINE      CODE     ---       #122
      010006B4H   LINE      CODE     ---       #123
      010006B7H   LINE      CODE     ---       #124
      010006BAH   LINE      CODE     ---       #125
      010006C7H   LINE      CODE     ---       #126
LX51 LINKER/LOCATER V4.66.97.0                                                        02/18/2023  13:05:27  PAGE 10


      010006D4H   LINE      CODE     ---       #128
      010006D4H   LINE      CODE     ---       #129
      010006D4H   LINE      CODE     ---       #130
      010006D9H   LINE      CODE     ---       #131
      010006DEH   LINE      CODE     ---       #132
      010006E4H   LINE      CODE     ---       #133
      010006E4H   LINE      CODE     ---       #134
      010006EFH   LINE      CODE     ---       #135
      010006F9H   LINE      CODE     ---       #136
      010006F9H   LINE      CODE     ---       #138
      01000701H   LINE      CODE     ---       #139
      01000701H   LINE      CODE     ---       #140
      01000706H   LINE      CODE     ---       #141
      ---         BLOCKEND  ---      ---       LVL=0

      0100070BH   BLOCK     CODE     ---       LVL=0
      01000714H   BLOCK     CODE     NEAR LAB  LVL=1
      0000001DH   SYMBOL    DATA     WORD      T0count
      ---         BLOCKEND  ---      ---       LVL=1
      0100070BH   LINE      CODE     ---       #147
      01000714H   LINE      CODE     ---       #150
      01000717H   LINE      CODE     ---       #151
      0100071AH   LINE      CODE     ---       #152
      01000722H   LINE      CODE     ---       #153
      0100072BH   LINE      CODE     ---       #154
      0100072BH   LINE      CODE     ---       #155
      01000735H   LINE      CODE     ---       #156
      0100073BH   LINE      CODE     ---       #157
      0100073BH   LINE      CODE     ---       #158
      ---         BLOCKEND  ---      ---       LVL=0

      ---         MODULE    ---      ---       DELAY
      01000858H   PUBLIC    CODE     ---       _Delay
      00000080H   SFRSYM    DATA     BYTE      P0
      00000090H   SFRSYM    DATA     BYTE      P1
      000000A0H   SFRSYM    DATA     BYTE      P2
      000000B0H   SFRSYM    DATA     BYTE      P3
      000000D0H.6 SFRSYM    DATA     BIT       AC
      000000B0H.4 SFRSYM    DATA     BIT       T0
      000000B0H.5 SFRSYM    DATA     BIT       T1
      000000A8H.7 SFRSYM    DATA     BIT       EA
      00000090H.0 SFRSYM    DATA     BIT       T2
      000000A8H   SFRSYM    DATA     BYTE      IE
      00000080H.0 SFRSYM    DATA     BIT       P0_0
      00000090H.0 SFRSYM    DATA     BIT       P1_0
      00000080H.1 SFRSYM    DATA     BIT       P0_1
      000000A0H.0 SFRSYM    DATA     BIT       P2_0
      00000090H.1 SFRSYM    DATA     BIT       P1_1
      00000080H.2 SFRSYM    DATA     BIT       P0_2
      000000B0H.0 SFRSYM    DATA     BIT       P3_0
      000000A0H.1 SFRSYM    DATA     BIT       P2_1
      00000090H.2 SFRSYM    DATA     BIT       P1_2
      00000080H.3 SFRSYM    DATA     BIT       P0_3
      000000B0H.1 SFRSYM    DATA     BIT       P3_1
      000000A0H.2 SFRSYM    DATA     BIT       P2_2
      00000090H.3 SFRSYM    DATA     BIT       P1_3
      00000080H.4 SFRSYM    DATA     BIT       P0_4
      000000B0H.2 SFRSYM    DATA     BIT       P3_2
      000000A0H.3 SFRSYM    DATA     BIT       P2_3
      00000090H.4 SFRSYM    DATA     BIT       P1_4
      00000080H.5 SFRSYM    DATA     BIT       P0_5
      000000C8H.6 SFRSYM    DATA     BIT       EXF2
      000000B0H.7 SFRSYM    DATA     BIT       RD
      000000B0H.3 SFRSYM    DATA     BIT       P3_3
      000000A0H.4 SFRSYM    DATA     BIT       P2_4
LX51 LINKER/LOCATER V4.66.97.0                                                        02/18/2023  13:05:27  PAGE 11


      00000090H.5 SFRSYM    DATA     BIT       P1_5
      00000080H.6 SFRSYM    DATA     BIT       P0_6
      000000B0H.4 SFRSYM    DATA     BIT       P3_4
      000000A0H.5 SFRSYM    DATA     BIT       P2_5
      00000090H.6 SFRSYM    DATA     BIT       P1_6
      00000080H.7 SFRSYM    DATA     BIT       P0_7
      000000B0H.5 SFRSYM    DATA     BIT       P3_5
      000000A8H.4 SFRSYM    DATA     BIT       ES
      000000A0H.6 SFRSYM    DATA     BIT       P2_6
      00000090H.7 SFRSYM    DATA     BIT       P1_7
      000000B0H.6 SFRSYM    DATA     BIT       P3_6
      000000A0H.7 SFRSYM    DATA     BIT       P2_7
      000000B8H   SFRSYM    DATA     BYTE      IP
      000000B0H.7 SFRSYM    DATA     BIT       P3_7
      00000098H.0 SFRSYM    DATA     BIT       RI
      000000D0H.7 SFRSYM    DATA     BIT       CY
      000000B0H.2 SFRSYM    DATA     BIT       INT0
      000000B0H.3 SFRSYM    DATA     BIT       INT1
      00000098H.1 SFRSYM    DATA     BIT       TI
      000000CBH   SFRSYM    DATA     BYTE      RCAP2H
      000000B8H.4 SFRSYM    DATA     BIT       PS
      00000081H   SFRSYM    DATA     BYTE      SP
      00000090H.1 SFRSYM    DATA     BIT       T2EX
      000000D0H.2 SFRSYM    DATA     BIT       OV
      000000CAH   SFRSYM    DATA     BYTE      RCAP2L
      000000C8H.1 SFRSYM    DATA     BIT       C_T2
      000000B0H.6 SFRSYM    DATA     BIT       WR
      000000C8H.5 SFRSYM    DATA     BIT       RCLK
      000000C8H.4 SFRSYM    DATA     BIT       TCLK
      00000099H   SFRSYM    DATA     BYTE      SBUF
      00000087H   SFRSYM    DATA     BYTE      PCON
      00000098H   SFRSYM    DATA     BYTE      SCON
      00000089H   SFRSYM    DATA     BYTE      TMOD
      00000088H   SFRSYM    DATA     BYTE      TCON
      00000088H.1 SFRSYM    DATA     BIT       IE0
      00000088H.3 SFRSYM    DATA     BIT       IE1
      000000F0H   SFRSYM    DATA     BYTE      B
      000000C8H.0 SFRSYM    DATA     BIT       CP_RL2
      000000E0H   SFRSYM    DATA     BYTE      ACC
      000000A8H.1 SFRSYM    DATA     BIT       ET0
      000000A8H.3 SFRSYM    DATA     BIT       ET1
      00000088H.5 SFRSYM    DATA     BIT       TF0
      000000A8H.5 SFRSYM    DATA     BIT       ET2
      00000088H.7 SFRSYM    DATA     BIT       TF1
      000000C8H.7 SFRSYM    DATA     BIT       TF2
      00000098H.2 SFRSYM    DATA     BIT       RB8
      0000008CH   SFRSYM    DATA     BYTE      TH0
      000000A8H.0 SFRSYM    DATA     BIT       EX0
      00000088H.0 SFRSYM    DATA     BIT       IT0
      0000008DH   SFRSYM    DATA     BYTE      TH1
      000000A8H.2 SFRSYM    DATA     BIT       EX1
      00000098H.3 SFRSYM    DATA     BIT       TB8
      00000088H.2 SFRSYM    DATA     BIT       IT1
      000000CDH   SFRSYM    DATA     BYTE      TH2
      000000D0H.0 SFRSYM    DATA     BIT       P
      00000098H.7 SFRSYM    DATA     BIT       SM0
      0000008AH   SFRSYM    DATA     BYTE      TL0
      00000098H.6 SFRSYM    DATA     BIT       SM1
      0000008BH   SFRSYM    DATA     BYTE      TL1
      00000098H.5 SFRSYM    DATA     BIT       SM2
      000000CCH   SFRSYM    DATA     BYTE      TL2
      000000B8H.1 SFRSYM    DATA     BIT       PT0
      000000D0H.3 SFRSYM    DATA     BIT       RS0
      000000B8H.3 SFRSYM    DATA     BIT       PT1
      000000D0H.4 SFRSYM    DATA     BIT       RS1
LX51 LINKER/LOCATER V4.66.97.0                                                        02/18/2023  13:05:27  PAGE 12


      000000B8H.5 SFRSYM    DATA     BIT       PT2
      00000088H.4 SFRSYM    DATA     BIT       TR0
      00000088H.6 SFRSYM    DATA     BIT       TR1
      000000C8H.2 SFRSYM    DATA     BIT       TR2
      000000B8H.0 SFRSYM    DATA     BIT       PX0
      000000B8H.2 SFRSYM    DATA     BIT       PX1
      00000083H   SFRSYM    DATA     BYTE      DPH
      00000082H   SFRSYM    DATA     BYTE      DPL
      000000C8H.3 SFRSYM    DATA     BIT       EXEN2
      00000098H.4 SFRSYM    DATA     BIT       REN
      000000C9H   SFRSYM    DATA     BYTE      T2MOD
      000000C8H   SFRSYM    DATA     BYTE      T2CON
      000000B0H.0 SFRSYM    DATA     BIT       RXD
      000000B0H.1 SFRSYM    DATA     BIT       TXD
      000000D0H.5 SFRSYM    DATA     BIT       F0
      000000D0H.1 SFRSYM    DATA     BIT       F1
      000000D0H   SFRSYM    DATA     BYTE      PSW

      01000858H   BLOCK     CODE     ---       LVL=0
      00000006H   SYMBOL    DATA     WORD      x
      01000858H   BLOCK     CODE     NEAR LAB  LVL=1
      00000005H   SYMBOL    DATA     BYTE      i
      00000004H   SYMBOL    DATA     BYTE      j
      ---         BLOCKEND  ---      ---       LVL=1
      01000858H   LINE      CODE     ---       #3
      01000858H   LINE      CODE     ---       #4
      01000858H   LINE      CODE     ---       #6
      01000862H   LINE      CODE     ---       #7
      01000862H   LINE      CODE     ---       #8
      01000864H   LINE      CODE     ---       #9
      01000866H   LINE      CODE     ---       #11
      01000866H   LINE      CODE     ---       #12
      01000868H   LINE      CODE     ---       #13
      0100086AH   LINE      CODE     ---       #14
      0100086CH   LINE      CODE     ---       #15
      ---         BLOCKEND  ---      ---       LVL=0

      ---         MODULE    ---      ---       LCD1602
      00000014H   PUBLIC    DATA     BYTE      ?_LCD_ShowNum?BYTE
      010007D5H   PUBLIC    CODE     ---       _LCD_ShowNum
      0100074CH   PUBLIC    CODE     ---       _LCD_Pow
      010007F9H   PUBLIC    CODE     ---       _LCD_ShowString
      0100086DH   PUBLIC    CODE     ---       LCD_Init
      0100083AH   PUBLIC    CODE     ---       _LCD_SetCursor
      01000830H   PUBLIC    CODE     ---       _LCD_WriteData
      010008A2H   PUBLIC    CODE     ---       _LCD_WriteCommand
      01000899H   PUBLIC    CODE     ---       LCD_Delay
      00000080H   SFRSYM    DATA     BYTE      P0
      00000090H   SFRSYM    DATA     BYTE      P1
      000000A0H   SFRSYM    DATA     BYTE      P2
      000000B0H   SFRSYM    DATA     BYTE      P3
      000000D0H.6 SFRSYM    DATA     BIT       AC
      000000B0H.4 SFRSYM    DATA     BIT       T0
      000000B0H.5 SFRSYM    DATA     BIT       T1
      000000A8H.7 SFRSYM    DATA     BIT       EA
      00000090H.0 SFRSYM    DATA     BIT       T2
      000000A8H   SFRSYM    DATA     BYTE      IE
      00000080H.0 SFRSYM    DATA     BIT       P0_0
      00000090H.0 SFRSYM    DATA     BIT       P1_0
      00000080H.1 SFRSYM    DATA     BIT       P0_1
      000000A0H.0 SFRSYM    DATA     BIT       P2_0
      00000090H.1 SFRSYM    DATA     BIT       P1_1
      00000080H.2 SFRSYM    DATA     BIT       P0_2
      000000B0H.0 SFRSYM    DATA     BIT       P3_0
      000000A0H.1 SFRSYM    DATA     BIT       P2_1
LX51 LINKER/LOCATER V4.66.97.0                                                        02/18/2023  13:05:27  PAGE 13


      00000090H.2 SFRSYM    DATA     BIT       P1_2
      00000080H.3 SFRSYM    DATA     BIT       P0_3
      000000B0H.1 SFRSYM    DATA     BIT       P3_1
      000000A0H.2 SFRSYM    DATA     BIT       P2_2
      00000090H.3 SFRSYM    DATA     BIT       P1_3
      00000080H.4 SFRSYM    DATA     BIT       P0_4
      000000B0H.2 SFRSYM    DATA     BIT       P3_2
      000000A0H.3 SFRSYM    DATA     BIT       P2_3
      00000090H.4 SFRSYM    DATA     BIT       P1_4
      00000080H.5 SFRSYM    DATA     BIT       P0_5
      000000C8H.6 SFRSYM    DATA     BIT       EXF2
      000000B0H.7 SFRSYM    DATA     BIT       RD
      000000B0H.3 SFRSYM    DATA     BIT       P3_3
      000000A0H.4 SFRSYM    DATA     BIT       P2_4
      00000090H.5 SFRSYM    DATA     BIT       P1_5
      00000080H.6 SFRSYM    DATA     BIT       P0_6
      000000B0H.4 SFRSYM    DATA     BIT       P3_4
      000000A0H.5 SFRSYM    DATA     BIT       P2_5
      00000090H.6 SFRSYM    DATA     BIT       P1_6
      00000080H.7 SFRSYM    DATA     BIT       P0_7
      000000B0H.5 SFRSYM    DATA     BIT       P3_5
      000000A8H.4 SFRSYM    DATA     BIT       ES
      000000A0H.6 SFRSYM    DATA     BIT       P2_6
      00000090H.7 SFRSYM    DATA     BIT       P1_7
      000000B0H.6 SFRSYM    DATA     BIT       P3_6
      000000A0H.7 SFRSYM    DATA     BIT       P2_7
      000000B8H   SFRSYM    DATA     BYTE      IP
      000000B0H.7 SFRSYM    DATA     BIT       P3_7
      00000098H.0 SFRSYM    DATA     BIT       RI
      000000D0H.7 SFRSYM    DATA     BIT       CY
      000000B0H.2 SFRSYM    DATA     BIT       INT0
      000000B0H.3 SFRSYM    DATA     BIT       INT1
      00000098H.1 SFRSYM    DATA     BIT       TI
      000000CBH   SFRSYM    DATA     BYTE      RCAP2H
      000000B8H.4 SFRSYM    DATA     BIT       PS
      00000081H   SFRSYM    DATA     BYTE      SP
      00000090H.1 SFRSYM    DATA     BIT       T2EX
      000000D0H.2 SFRSYM    DATA     BIT       OV
      000000CAH   SFRSYM    DATA     BYTE      RCAP2L
      000000C8H.1 SFRSYM    DATA     BIT       C_T2
      000000B0H.6 SFRSYM    DATA     BIT       WR
      000000C8H.5 SFRSYM    DATA     BIT       RCLK
      000000C8H.4 SFRSYM    DATA     BIT       TCLK
      00000099H   SFRSYM    DATA     BYTE      SBUF
      00000087H   SFRSYM    DATA     BYTE      PCON
      00000098H   SFRSYM    DATA     BYTE      SCON
      00000089H   SFRSYM    DATA     BYTE      TMOD
      00000088H   SFRSYM    DATA     BYTE      TCON
      00000088H.1 SFRSYM    DATA     BIT       IE0
      00000088H.3 SFRSYM    DATA     BIT       IE1
      000000F0H   SFRSYM    DATA     BYTE      B
      000000C8H.0 SFRSYM    DATA     BIT       CP_RL2
      000000A0H.7 SFRSYM    DATA     BIT       LCD_EN
      000000E0H   SFRSYM    DATA     BYTE      ACC
      000000A8H.1 SFRSYM    DATA     BIT       ET0
      000000A8H.3 SFRSYM    DATA     BIT       ET1
      00000088H.5 SFRSYM    DATA     BIT       TF0
      000000A8H.5 SFRSYM    DATA     BIT       ET2
      00000088H.7 SFRSYM    DATA     BIT       TF1
      000000C8H.7 SFRSYM    DATA     BIT       TF2
      00000098H.2 SFRSYM    DATA     BIT       RB8
      0000008CH   SFRSYM    DATA     BYTE      TH0
      000000A8H.0 SFRSYM    DATA     BIT       EX0
      00000088H.0 SFRSYM    DATA     BIT       IT0
      0000008DH   SFRSYM    DATA     BYTE      TH1
LX51 LINKER/LOCATER V4.66.97.0                                                        02/18/2023  13:05:27  PAGE 14


      000000A8H.2 SFRSYM    DATA     BIT       EX1
      00000098H.3 SFRSYM    DATA     BIT       TB8
      00000088H.2 SFRSYM    DATA     BIT       IT1
      000000CDH   SFRSYM    DATA     BYTE      TH2
      000000D0H.0 SFRSYM    DATA     BIT       P
      00000098H.7 SFRSYM    DATA     BIT       SM0
      0000008AH   SFRSYM    DATA     BYTE      TL0
      00000098H.6 SFRSYM    DATA     BIT       SM1
      0000008BH   SFRSYM    DATA     BYTE      TL1
      00000098H.5 SFRSYM    DATA     BIT       SM2
      000000CCH   SFRSYM    DATA     BYTE      TL2
      000000B8H.1 SFRSYM    DATA     BIT       PT0
      000000D0H.3 SFRSYM    DATA     BIT       RS0
      000000B8H.3 SFRSYM    DATA     BIT       PT1
      000000D0H.4 SFRSYM    DATA     BIT       RS1
      000000B8H.5 SFRSYM    DATA     BIT       PT2
      00000088H.4 SFRSYM    DATA     BIT       TR0
      00000088H.6 SFRSYM    DATA     BIT       TR1
      000000C8H.2 SFRSYM    DATA     BIT       TR2
      000000B8H.0 SFRSYM    DATA     BIT       PX0
      000000A0H.6 SFRSYM    DATA     BIT       LCD_RS
      000000B8H.2 SFRSYM    DATA     BIT       PX1
      00000083H   SFRSYM    DATA     BYTE      DPH
      000000A0H.5 SFRSYM    DATA     BIT       LCD_RW
      00000082H   SFRSYM    DATA     BYTE      DPL
      000000C8H.3 SFRSYM    DATA     BIT       EXEN2
      00000098H.4 SFRSYM    DATA     BIT       REN
      000000C9H   SFRSYM    DATA     BYTE      T2MOD
      000000C8H   SFRSYM    DATA     BYTE      T2CON
      000000B0H.0 SFRSYM    DATA     BIT       RXD
      000000B0H.1 SFRSYM    DATA     BIT       TXD
      000000D0H.5 SFRSYM    DATA     BIT       F0
      000000D0H.1 SFRSYM    DATA     BIT       F1
      000000D0H   SFRSYM    DATA     BYTE      PSW

      01000893H   BLOCK     CODE     ---       LVL=0
      ---         BLOCKEND  ---      ---       LVL=0

      01000899H   BLOCK     CODE     ---       LVL=0
      00000007H   SYMBOL    DATA     BYTE      i
      00000006H   SYMBOL    DATA     BYTE      j
      01000899H   BLOCK     CODE     NEAR LAB  LVL=1
      00000007H   SYMBOL    DATA     BYTE      i
      00000006H   SYMBOL    DATA     BYTE      j
      ---         BLOCKEND  ---      ---       LVL=1
      01000899H   LINE      CODE     ---       #15
      01000899H   LINE      CODE     ---       #16
      01000899H   LINE      CODE     ---       #19
      0100089BH   LINE      CODE     ---       #20
      0100089DH   LINE      CODE     ---       #22
      0100089DH   LINE      CODE     ---       #23
      0100089FH   LINE      CODE     ---       #24
      010008A1H   LINE      CODE     ---       #25
      ---         BLOCKEND  ---      ---       LVL=0

      010008A2H   BLOCK     CODE     ---       LVL=0
      00000007H   SYMBOL    DATA     BYTE      Command
      010008A2H   LINE      CODE     ---       #32
      010008A2H   LINE      CODE     ---       #33
      010008A2H   LINE      CODE     ---       #34
      010008A4H   LINE      CODE     ---       #35
      010008A4H   LINE      CODE     ---       #36
      010008A4H   LINE      CODE     ---       #37
      010008A4H   LINE      CODE     ---       #38
      010008A7H   LINE      CODE     ---       #39
LX51 LINKER/LOCATER V4.66.97.0                                                        02/18/2023  13:05:27  PAGE 15


      010008A9H   LINE      CODE     ---       #40
      ---         BLOCKEND  ---      ---       LVL=0

      0100081CH   BLOCK     CODE     ---       LVL=0
      ---         BLOCKEND  ---      ---       LVL=0

      01000830H   BLOCK     CODE     ---       LVL=0
      00000007H   SYMBOL    DATA     BYTE      Data
      01000830H   LINE      CODE     ---       #48
      01000830H   LINE      CODE     ---       #49
      01000830H   LINE      CODE     ---       #50
      01000832H   LINE      CODE     ---       #51
      01000832H   LINE      CODE     ---       #52
      01000832H   LINE      CODE     ---       #53
      01000832H   LINE      CODE     ---       #54
      01000835H   LINE      CODE     ---       #55
      01000837H   LINE      CODE     ---       #56
      ---         BLOCKEND  ---      ---       LVL=0

      0100083AH   BLOCK     CODE     ---       LVL=0
      00000006H   SYMBOL    DATA     BYTE      Line
      00000005H   SYMBOL    DATA     BYTE      Column
      0100083AH   LINE      CODE     ---       #65
      0100083CH   LINE      CODE     ---       #66
      0100083CH   LINE      CODE     ---       #67
      01000844H   LINE      CODE     ---       #68
      01000844H   LINE      CODE     ---       #69
      01000846H   LINE      CODE     ---       #70
      01000848H   LINE      CODE     ---       #71
      0100084EH   LINE      CODE     ---       #72
      0100084EH   LINE      CODE     ---       #73
      01000857H   LINE      CODE     ---       #74
      01000857H   LINE      CODE     ---       #75
      ---         BLOCKEND  ---      ---       LVL=0

      0100086DH   BLOCK     CODE     ---       LVL=0
      0100086DH   LINE      CODE     ---       #82
      0100086DH   LINE      CODE     ---       #83
      0100086DH   LINE      CODE     ---       #84
      01000872H   LINE      CODE     ---       #85
      01000877H   LINE      CODE     ---       #86
      0100087CH   LINE      CODE     ---       #87
      ---         BLOCKEND  ---      ---       LVL=0
      00000006H   SYMBOL    DATA     BYTE      Line
      00000005H   SYMBOL    DATA     BYTE      Column
      00000004H   SYMBOL    DATA     CHAR      Char

      010007F9H   BLOCK     CODE     ---       LVL=0
      00000007H   SYMBOL    DATA     BYTE      Line
      00000005H   SYMBOL    DATA     BYTE      Column
      00000014H   SYMBOL    DATA     ---       String
      010007FFH   BLOCK     CODE     NEAR LAB  LVL=1
      00000005H   SYMBOL    DATA     BYTE      i
      ---         BLOCKEND  ---      ---       LVL=1
      010007F9H   LINE      CODE     ---       #110
      010007FFH   LINE      CODE     ---       #111
      010007FFH   LINE      CODE     ---       #113
      01000802H   LINE      CODE     ---       #114
      01000815H   LINE      CODE     ---       #115
      01000815H   LINE      CODE     ---       #116
      01000818H   LINE      CODE     ---       #117
      0100081BH   LINE      CODE     ---       #118
      ---         BLOCKEND  ---      ---       LVL=0

      01000742H   BLOCK     CODE     ---       LVL=0
LX51 LINKER/LOCATER V4.66.97.0                                                        02/18/2023  13:05:27  PAGE 16


      ---         BLOCKEND  ---      ---       LVL=0

      0100074CH   BLOCK     CODE     ---       LVL=0
      00000019H   SYMBOL    DATA     INT       X
      0000001BH   SYMBOL    DATA     INT       Y
      00000003H   SYMBOL    DATA     BYTE      i
      00000006H   SYMBOL    DATA     INT       Result
      01000754H   BLOCK     CODE     NEAR LAB  LVL=1
      00000003H   SYMBOL    DATA     BYTE      i
      00000006H   SYMBOL    DATA     INT       Result
      ---         BLOCKEND  ---      ---       LVL=1
      0100074CH   LINE      CODE     ---       #123
      01000754H   LINE      CODE     ---       #124
      01000754H   LINE      CODE     ---       #126
      01000758H   LINE      CODE     ---       #127
      01000768H   LINE      CODE     ---       #128
      01000768H   LINE      CODE     ---       #129
      0100076FH   LINE      CODE     ---       #130
      01000772H   LINE      CODE     ---       #131
      01000772H   LINE      CODE     ---       #132
      ---         BLOCKEND  ---      ---       LVL=0

      010007D5H   BLOCK     CODE     ---       LVL=0
      00000007H   SYMBOL    DATA     BYTE      Line
      00000005H   SYMBOL    DATA     BYTE      Column
      00000016H   SYMBOL    DATA     WORD      Number
      00000018H   SYMBOL    DATA     BYTE      Length
      010007D9H   BLOCK     CODE     NEAR LAB  LVL=1
      00000002H   SYMBOL    DATA     BYTE      i
      ---         BLOCKEND  ---      ---       LVL=1
      010007D5H   LINE      CODE     ---       #142
      010007D9H   LINE      CODE     ---       #143
      010007D9H   LINE      CODE     ---       #145
      010007DCH   LINE      CODE     ---       #146
      010007EBH   LINE      CODE     ---       #147
      010007EBH   LINE      CODE     ---       #148
      010007F5H   LINE      CODE     ---       #149
      010007F8H   LINE      CODE     ---       #150
      ---         BLOCKEND  ---      ---       LVL=0
      00000007H   SYMBOL    DATA     BYTE      Line
      00000005H   SYMBOL    DATA     BYTE      Column
      00000082H   SYMBOL    DATA     INT       Number
      00000002H   SYMBOL    DATA     BYTE      i
      00000007H   SYMBOL    DATA     BYTE      Line
      00000005H   SYMBOL    DATA     BYTE      Column
      00000002H   SYMBOL    DATA     BYTE      i
      00000006H   SYMBOL    DATA     BYTE      SingleNumber
      00000007H   SYMBOL    DATA     BYTE      Line
      00000005H   SYMBOL    DATA     BYTE      Column
      00000002H   SYMBOL    DATA     BYTE      i

      ---         MODULE    ---      ---       TIMER0
      01000881H   PUBLIC    CODE     ---       Timer_Init
      00000080H   SFRSYM    DATA     BYTE      P0
      00000090H   SFRSYM    DATA     BYTE      P1
      000000A0H   SFRSYM    DATA     BYTE      P2
      000000B0H   SFRSYM    DATA     BYTE      P3
      000000D0H.6 SFRSYM    DATA     BIT       AC
      000000B0H.4 SFRSYM    DATA     BIT       T0
      000000B0H.5 SFRSYM    DATA     BIT       T1
      000000A8H.7 SFRSYM    DATA     BIT       EA
      000000A8H   SFRSYM    DATA     BYTE      IE
      00000080H.0 SFRSYM    DATA     BIT       P0_0
      00000090H.0 SFRSYM    DATA     BIT       P1_0
      00000080H.1 SFRSYM    DATA     BIT       P0_1
LX51 LINKER/LOCATER V4.66.97.0                                                        02/18/2023  13:05:27  PAGE 17


      000000A0H.0 SFRSYM    DATA     BIT       P2_0
      00000090H.1 SFRSYM    DATA     BIT       P1_1
      00000080H.2 SFRSYM    DATA     BIT       P0_2
      000000B0H.0 SFRSYM    DATA     BIT       P3_0
      000000A0H.1 SFRSYM    DATA     BIT       P2_1
      00000090H.2 SFRSYM    DATA     BIT       P1_2
      00000080H.3 SFRSYM    DATA     BIT       P0_3
      000000B0H.1 SFRSYM    DATA     BIT       P3_1
      000000A0H.2 SFRSYM    DATA     BIT       P2_2
      00000090H.3 SFRSYM    DATA     BIT       P1_3
      00000080H.4 SFRSYM    DATA     BIT       P0_4
      000000B0H.2 SFRSYM    DATA     BIT       P3_2
      000000A0H.3 SFRSYM    DATA     BIT       P2_3
      00000090H.4 SFRSYM    DATA     BIT       P1_4
      00000080H.5 SFRSYM    DATA     BIT       P0_5
      000000B0H.7 SFRSYM    DATA     BIT       RD
      000000B0H.3 SFRSYM    DATA     BIT       P3_3
      000000A0H.4 SFRSYM    DATA     BIT       P2_4
      00000090H.5 SFRSYM    DATA     BIT       P1_5
      00000080H.6 SFRSYM    DATA     BIT       P0_6
      000000B0H.4 SFRSYM    DATA     BIT       P3_4
      000000A0H.5 SFRSYM    DATA     BIT       P2_5
      00000090H.6 SFRSYM    DATA     BIT       P1_6
      00000080H.7 SFRSYM    DATA     BIT       P0_7
      000000B0H.5 SFRSYM    DATA     BIT       P3_5
      000000A8H.4 SFRSYM    DATA     BIT       ES
      000000A0H.6 SFRSYM    DATA     BIT       P2_6
      00000090H.7 SFRSYM    DATA     BIT       P1_7
      000000B0H.6 SFRSYM    DATA     BIT       P3_6
      000000A0H.7 SFRSYM    DATA     BIT       P2_7
      000000B8H   SFRSYM    DATA     BYTE      IP
      000000B0H.7 SFRSYM    DATA     BIT       P3_7
      00000098H.0 SFRSYM    DATA     BIT       RI
      000000D0H.7 SFRSYM    DATA     BIT       CY
      000000B0H.2 SFRSYM    DATA     BIT       INT0
      000000B0H.3 SFRSYM    DATA     BIT       INT1
      00000098H.1 SFRSYM    DATA     BIT       TI
      000000B8H.4 SFRSYM    DATA     BIT       PS
      00000081H   SFRSYM    DATA     BYTE      SP
      000000D0H.2 SFRSYM    DATA     BIT       OV
      000000B0H.6 SFRSYM    DATA     BIT       WR
      00000099H   SFRSYM    DATA     BYTE      SBUF
      00000087H   SFRSYM    DATA     BYTE      PCON
      00000098H   SFRSYM    DATA     BYTE      SCON
      00000089H   SFRSYM    DATA     BYTE      TMOD
      00000088H   SFRSYM    DATA     BYTE      TCON
      00000088H.1 SFRSYM    DATA     BIT       IE0
      00000088H.3 SFRSYM    DATA     BIT       IE1
      000000F0H   SFRSYM    DATA     BYTE      B
      000000E0H   SFRSYM    DATA     BYTE      ACC
      000000A8H.1 SFRSYM    DATA     BIT       ET0
      000000A8H.3 SFRSYM    DATA     BIT       ET1
      00000088H.5 SFRSYM    DATA     BIT       TF0
      000000A8H.5 SFRSYM    DATA     BIT       ET2
      00000088H.7 SFRSYM    DATA     BIT       TF1
      00000098H.2 SFRSYM    DATA     BIT       RB8
      0000008CH   SFRSYM    DATA     BYTE      TH0
      000000A8H.0 SFRSYM    DATA     BIT       EX0
      00000088H.0 SFRSYM    DATA     BIT       IT0
      0000008DH   SFRSYM    DATA     BYTE      TH1
      000000A8H.2 SFRSYM    DATA     BIT       EX1
      00000098H.3 SFRSYM    DATA     BIT       TB8
      00000088H.2 SFRSYM    DATA     BIT       IT1
      000000D0H.0 SFRSYM    DATA     BIT       P
      00000098H.7 SFRSYM    DATA     BIT       SM0
LX51 LINKER/LOCATER V4.66.97.0                                                        02/18/2023  13:05:27  PAGE 18


      0000008AH   SFRSYM    DATA     BYTE      TL0
      00000098H.6 SFRSYM    DATA     BIT       SM1
      0000008BH   SFRSYM    DATA     BYTE      TL1
      00000098H.5 SFRSYM    DATA     BIT       SM2
      000000B8H.1 SFRSYM    DATA     BIT       PT0
      000000D0H.3 SFRSYM    DATA     BIT       RS0
      000000B8H.3 SFRSYM    DATA     BIT       PT1
      000000D0H.4 SFRSYM    DATA     BIT       RS1
      000000B8H.5 SFRSYM    DATA     BIT       PT2
      00000088H.4 SFRSYM    DATA     BIT       TR0
      00000088H.6 SFRSYM    DATA     BIT       TR1
      000000B8H.0 SFRSYM    DATA     BIT       PX0
      000000B8H.2 SFRSYM    DATA     BIT       PX1
      00000083H   SFRSYM    DATA     BYTE      DPH
      00000082H   SFRSYM    DATA     BYTE      DPL
      00000098H.4 SFRSYM    DATA     BIT       REN
      000000B0H.0 SFRSYM    DATA     BIT       RXD
      000000B0H.1 SFRSYM    DATA     BIT       TXD
      000000D0H.5 SFRSYM    DATA     BIT       F0
      000000D0H.1 SFRSYM    DATA     BIT       F1
      000000D0H   SFRSYM    DATA     BYTE      PSW

      01000881H   BLOCK     CODE     ---       LVL=0
      01000881H   LINE      CODE     ---       #4
      01000881H   LINE      CODE     ---       #5
      01000881H   LINE      CODE     ---       #6
      01000884H   LINE      CODE     ---       #7
      01000886H   LINE      CODE     ---       #8
      01000888H   LINE      CODE     ---       #9
      0100088BH   LINE      CODE     ---       #10
      0100088EH   LINE      CODE     ---       #11
      01000890H   LINE      CODE     ---       #12
      01000892H   LINE      CODE     ---       #14
      ---         BLOCKEND  ---      ---       LVL=0

      ---         MODULE    ---      ---       DS1302
      00000013H   PUBLIC    DATA     BYTE      MINUTE
      00000012H   PUBLIC    DATA     BYTE      HOUR
      00000011H   PUBLIC    DATA     BYTE      SECOND
      00000010H   PUBLIC    DATA     BYTE      YEAR
      0000000FH   PUBLIC    DATA     BYTE      DATE
      00000009H   PUBLIC    DATA     ---       Time
      00000008H   PUBLIC    DATA     BYTE      MONTH
      010004D0H   PUBLIC    CODE     ---       DS1302_ReadTime
      01000650H   PUBLIC    CODE     ---       _DS1302_ReadByte
      010002C1H   PUBLIC    CODE     ---       DS1302_SetTime
      010005EDH   PUBLIC    CODE     ---       _DS1302_WriteByte
      01000003H   PUBLIC    CODE     ---       DS1302_Init
      00000080H   SFRSYM    DATA     BYTE      P0
      00000090H   SFRSYM    DATA     BYTE      P1
      000000A0H   SFRSYM    DATA     BYTE      P2
      000000B0H   SFRSYM    DATA     BYTE      P3
      000000B0H.4 SFRSYM    DATA     BIT       T0
      000000D0H.6 SFRSYM    DATA     BIT       AC
      000000B0H.5 SFRSYM    DATA     BIT       T1
      000000A8H.7 SFRSYM    DATA     BIT       EA
      000000A8H   SFRSYM    DATA     BYTE      IE
      000000B0H.7 SFRSYM    DATA     BIT       RD
      000000A8H.4 SFRSYM    DATA     BIT       ES
      000000B8H   SFRSYM    DATA     BYTE      IP
      00000098H.0 SFRSYM    DATA     BIT       RI
      000000B0H.2 SFRSYM    DATA     BIT       INT0
      000000D0H.7 SFRSYM    DATA     BIT       CY
      00000098H.1 SFRSYM    DATA     BIT       TI
      000000B0H.3 SFRSYM    DATA     BIT       INT1
LX51 LINKER/LOCATER V4.66.97.0                                                        02/18/2023  13:05:27  PAGE 19


      000000B8H.4 SFRSYM    DATA     BIT       PS
      00000081H   SFRSYM    DATA     BYTE      SP
      000000D0H.2 SFRSYM    DATA     BIT       OV
      000000B0H.6 SFRSYM    DATA     BIT       WR
      00000099H   SFRSYM    DATA     BYTE      SBUF
      00000087H   SFRSYM    DATA     BYTE      PCON
      00000098H   SFRSYM    DATA     BYTE      SCON
      00000089H   SFRSYM    DATA     BYTE      TMOD
      00000088H   SFRSYM    DATA     BYTE      TCON
      00000088H.1 SFRSYM    DATA     BIT       IE0
      00000088H.3 SFRSYM    DATA     BIT       IE1
      000000F0H   SFRSYM    DATA     BYTE      B
      000000B0H.5 SFRSYM    DATA     BIT       DS1302_CE
      000000E0H   SFRSYM    DATA     BYTE      ACC
      000000A8H.1 SFRSYM    DATA     BIT       ET0
      000000A8H.3 SFRSYM    DATA     BIT       ET1
      00000088H.5 SFRSYM    DATA     BIT       TF0
      00000088H.7 SFRSYM    DATA     BIT       TF1
      00000098H.2 SFRSYM    DATA     BIT       RB8
      0000008CH   SFRSYM    DATA     BYTE      TH0
      000000A8H.0 SFRSYM    DATA     BIT       EX0
      00000088H.0 SFRSYM    DATA     BIT       IT0
      0000008DH   SFRSYM    DATA     BYTE      TH1
      00000098H.3 SFRSYM    DATA     BIT       TB8
      000000A8H.2 SFRSYM    DATA     BIT       EX1
      00000088H.2 SFRSYM    DATA     BIT       IT1
      000000D0H.0 SFRSYM    DATA     BIT       P
      00000098H.7 SFRSYM    DATA     BIT       SM0
      0000008AH   SFRSYM    DATA     BYTE      TL0
      00000098H.6 SFRSYM    DATA     BIT       SM1
      0000008BH   SFRSYM    DATA     BYTE      TL1
      00000098H.5 SFRSYM    DATA     BIT       SM2
      000000B8H.1 SFRSYM    DATA     BIT       PT0
      000000B8H.3 SFRSYM    DATA     BIT       PT1
      000000D0H.3 SFRSYM    DATA     BIT       RS0
      00000088H.4 SFRSYM    DATA     BIT       TR0
      000000D0H.4 SFRSYM    DATA     BIT       RS1
      000000B0H.4 SFRSYM    DATA     BIT       DS1302_IO
      00000088H.6 SFRSYM    DATA     BIT       TR1
      000000B8H.0 SFRSYM    DATA     BIT       PX0
      000000B8H.2 SFRSYM    DATA     BIT       PX1
      00000083H   SFRSYM    DATA     BYTE      DPH
      00000082H   SFRSYM    DATA     BYTE      DPL
      00000098H.4 SFRSYM    DATA     BIT       REN
      000000B0H.6 SFRSYM    DATA     BIT       DS1302_SCLK
      000000B0H.0 SFRSYM    DATA     BIT       RXD
      000000B0H.1 SFRSYM    DATA     BIT       TXD
      000000D0H.5 SFRSYM    DATA     BIT       F0
      000000D0H   SFRSYM    DATA     BYTE      PSW

      01000003H   BLOCK     CODE     ---       LVL=0
      01000003H   LINE      CODE     ---       #23
      01000003H   LINE      CODE     ---       #24
      01000003H   LINE      CODE     ---       #25
      01000005H   LINE      CODE     ---       #26
      01000007H   LINE      CODE     ---       #27
      ---         BLOCKEND  ---      ---       LVL=0

      010005EDH   BLOCK     CODE     ---       LVL=0
      00000001H   SYMBOL    DATA     BYTE      Command
      00000005H   SYMBOL    DATA     BYTE      Date
      010005EFH   BLOCK     CODE     NEAR LAB  LVL=1
      00000003H   SYMBOL    DATA     BYTE      i
      ---         BLOCKEND  ---      ---       LVL=1
      010005EDH   LINE      CODE     ---       #29
LX51 LINKER/LOCATER V4.66.97.0                                                        02/18/2023  13:05:27  PAGE 20


      010005EFH   LINE      CODE     ---       #30
      010005EFH   LINE      CODE     ---       #31
      010005F1H   LINE      CODE     ---       #32
      010005F3H   LINE      CODE     ---       #33
      010005FDH   LINE      CODE     ---       #34
      010005FDH   LINE      CODE     ---       #35
      01000618H   LINE      CODE     ---       #36
      0100061AH   LINE      CODE     ---       #37
      0100061CH   LINE      CODE     ---       #38
      0100061FH   LINE      CODE     ---       #39
      0100062BH   LINE      CODE     ---       #40
      0100062BH   LINE      CODE     ---       #41
      01000646H   LINE      CODE     ---       #42
      01000648H   LINE      CODE     ---       #43
      0100064AH   LINE      CODE     ---       #44
      0100064DH   LINE      CODE     ---       #45
      0100064FH   LINE      CODE     ---       #46
      ---         BLOCKEND  ---      ---       LVL=0

      010002C1H   BLOCK     CODE     ---       LVL=0
      010002C1H   LINE      CODE     ---       #48
      010002C1H   LINE      CODE     ---       #49
      010002C1H   LINE      CODE     ---       #50
      010002C8H   LINE      CODE     ---       #51
      010002E6H   LINE      CODE     ---       #52
      01000304H   LINE      CODE     ---       #53
      01000322H   LINE      CODE     ---       #54
      01000340H   LINE      CODE     ---       #55
      0100035EH   LINE      CODE     ---       #56
      0100037CH   LINE      CODE     ---       #57
      ---         BLOCKEND  ---      ---       LVL=0

      01000650H   BLOCK     CODE     ---       LVL=0
      00000005H   SYMBOL    DATA     BYTE      Command
      01000652H   BLOCK     CODE     NEAR LAB  LVL=1
      00000003H   SYMBOL    DATA     BYTE      i
      00000001H   SYMBOL    DATA     BYTE      Byte
      ---         BLOCKEND  ---      ---       LVL=1
      01000650H   LINE      CODE     ---       #60
      01000652H   LINE      CODE     ---       #61
      01000652H   LINE      CODE     ---       #62
      01000654H   LINE      CODE     ---       #63
      01000656H   LINE      CODE     ---       #64
      01000659H   LINE      CODE     ---       #65
      01000664H   LINE      CODE     ---       #66
      01000664H   LINE      CODE     ---       #68
      0100067FH   LINE      CODE     ---       #69
      01000681H   LINE      CODE     ---       #70
      01000683H   LINE      CODE     ---       #71
      01000686H   LINE      CODE     ---       #72
      01000692H   LINE      CODE     ---       #73
      01000692H   LINE      CODE     ---       #74
      01000694H   LINE      CODE     ---       #75
      01000696H   LINE      CODE     ---       #76
      010006A6H   LINE      CODE     ---       #77
      010006A9H   LINE      CODE     ---       #78
      010006ABH   LINE      CODE     ---       #79
      010006ADH   LINE      CODE     ---       #80
      ---         BLOCKEND  ---      ---       LVL=0

      010004D0H   BLOCK     CODE     ---       LVL=0
      010004D0H   LINE      CODE     ---       #82
      010004D0H   LINE      CODE     ---       #83
      010004D0H   LINE      CODE     ---       #84
      010004D7H   LINE      CODE     ---       #85
LX51 LINKER/LOCATER V4.66.97.0                                                        02/18/2023  13:05:27  PAGE 21


      010004E8H   LINE      CODE     ---       #86
      010004EFH   LINE      CODE     ---       #87
      01000500H   LINE      CODE     ---       #88
      01000507H   LINE      CODE     ---       #89
      01000518H   LINE      CODE     ---       #90
      0100051FH   LINE      CODE     ---       #91
      01000530H   LINE      CODE     ---       #92
      01000537H   LINE      CODE     ---       #93
      01000548H   LINE      CODE     ---       #94
      0100054FH   LINE      CODE     ---       #95
      01000560H   LINE      CODE     ---       #96
      ---         BLOCKEND  ---      ---       LVL=0

      ---         MODULE    ---      ---       KEY
      010007A4H   PUBLIC    CODE     ---       Key2
      01000773H   PUBLIC    CODE     ---       Key
      00000080H   SFRSYM    DATA     BYTE      P0
      00000090H   SFRSYM    DATA     BYTE      P1
      000000A0H   SFRSYM    DATA     BYTE      P2
      000000B0H   SFRSYM    DATA     BYTE      P3
      000000A0H.4 SFRSYM    DATA     BIT       select
      000000B0H.4 SFRSYM    DATA     BIT       T0
      000000D0H.6 SFRSYM    DATA     BIT       AC
      000000B0H.5 SFRSYM    DATA     BIT       T1
      000000A8H.7 SFRSYM    DATA     BIT       EA
      000000A8H   SFRSYM    DATA     BYTE      IE
      000000B0H.7 SFRSYM    DATA     BIT       RD
      000000A8H.4 SFRSYM    DATA     BIT       ES
      000000B8H   SFRSYM    DATA     BYTE      IP
      00000098H.0 SFRSYM    DATA     BIT       RI
      000000B0H.2 SFRSYM    DATA     BIT       INT0
      000000D0H.7 SFRSYM    DATA     BIT       CY
      00000098H.1 SFRSYM    DATA     BIT       TI
      000000B0H.3 SFRSYM    DATA     BIT       INT1
      000000B8H.4 SFRSYM    DATA     BIT       PS
      00000081H   SFRSYM    DATA     BYTE      SP
      000000D0H.2 SFRSYM    DATA     BIT       OV
      000000B0H.6 SFRSYM    DATA     BIT       WR
      000000A0H.0 SFRSYM    DATA     BIT       add
      00000099H   SFRSYM    DATA     BYTE      SBUF
      00000087H   SFRSYM    DATA     BYTE      PCON
      00000090H.6 SFRSYM    DATA     BIT       En
      00000098H   SFRSYM    DATA     BYTE      SCON
      00000089H   SFRSYM    DATA     BYTE      TMOD
      00000088H   SFRSYM    DATA     BYTE      TCON
      00000088H.1 SFRSYM    DATA     BIT       IE0
      00000088H.3 SFRSYM    DATA     BIT       IE1
      000000F0H   SFRSYM    DATA     BYTE      B
      000000E0H   SFRSYM    DATA     BYTE      ACC
      000000A8H.1 SFRSYM    DATA     BIT       ET0
      000000A8H.3 SFRSYM    DATA     BIT       ET1
      00000088H.5 SFRSYM    DATA     BIT       TF0
      00000088H.7 SFRSYM    DATA     BIT       TF1
      00000098H.2 SFRSYM    DATA     BIT       RB8
      0000008CH   SFRSYM    DATA     BYTE      TH0
      000000A8H.0 SFRSYM    DATA     BIT       EX0
      00000088H.0 SFRSYM    DATA     BIT       IT0
      0000008DH   SFRSYM    DATA     BYTE      TH1
      00000098H.3 SFRSYM    DATA     BIT       TB8
      000000A8H.2 SFRSYM    DATA     BIT       EX1
      00000088H.2 SFRSYM    DATA     BIT       IT1
      000000A0H.1 SFRSYM    DATA     BIT       subtracat
      000000D0H.0 SFRSYM    DATA     BIT       P
      00000098H.7 SFRSYM    DATA     BIT       SM0
      0000008AH   SFRSYM    DATA     BYTE      TL0
LX51 LINKER/LOCATER V4.66.97.0                                                        02/18/2023  13:05:27  PAGE 22


      00000098H.6 SFRSYM    DATA     BIT       SM1
      0000008BH   SFRSYM    DATA     BYTE      TL1
      00000098H.5 SFRSYM    DATA     BIT       SM2
      000000B8H.1 SFRSYM    DATA     BIT       PT0
      000000B8H.3 SFRSYM    DATA     BIT       PT1
      000000D0H.3 SFRSYM    DATA     BIT       RS0
      00000088H.4 SFRSYM    DATA     BIT       TR0
      000000D0H.4 SFRSYM    DATA     BIT       RS1
      00000088H.6 SFRSYM    DATA     BIT       TR1
      000000B8H.0 SFRSYM    DATA     BIT       PX0
      000000B8H.2 SFRSYM    DATA     BIT       PX1
      00000083H   SFRSYM    DATA     BYTE      DPH
      00000082H   SFRSYM    DATA     BYTE      DPL
      00000098H.4 SFRSYM    DATA     BIT       REN
      000000B0H.0 SFRSYM    DATA     BIT       RXD
      000000B0H.1 SFRSYM    DATA     BIT       TXD
      000000D0H.5 SFRSYM    DATA     BIT       F0
      000000D0H   SFRSYM    DATA     BYTE      PSW

      01000773H   BLOCK     CODE     ---       LVL=0
      01000773H   BLOCK     CODE     NEAR LAB  LVL=1
      00000014H   SYMBOL    DATA     BYTE      key
      ---         BLOCKEND  ---      ---       LVL=1
      01000773H   LINE      CODE     ---       #23
      01000773H   LINE      CODE     ---       #24
      01000773H   LINE      CODE     ---       #25
      01000776H   LINE      CODE     ---       #27
      0100078DH   LINE      CODE     ---       #28
      010007A1H   LINE      CODE     ---       #30
      010007A3H   LINE      CODE     ---       #31
      ---         BLOCKEND  ---      ---       LVL=0

      010007A4H   BLOCK     CODE     ---       LVL=0
      010007A4H   BLOCK     CODE     NEAR LAB  LVL=1
      00000014H   SYMBOL    DATA     BYTE      key2
      ---         BLOCKEND  ---      ---       LVL=1
      010007A4H   LINE      CODE     ---       #33
      010007A4H   LINE      CODE     ---       #34
      010007A4H   LINE      CODE     ---       #35
      010007A7H   LINE      CODE     ---       #37
      010007BEH   LINE      CODE     ---       #38
      010007D2H   LINE      CODE     ---       #40
      010007D4H   LINE      CODE     ---       #41
      ---         BLOCKEND  ---      ---       LVL=0

      ---         MODULE    ---      ---       ?C_INIT
      010005A8H   PUBLIC    CODE     ---       ?C_START

      ---         MODULE    ---      ---       ?C?SCDIV
      01000383H   PUBLIC    CODE     ---       ?C?SCDIV

      ---         MODULE    ---      ---       ?C?CLDOPTR
      010003A5H   PUBLIC    CODE     ---       ?C?CLDOPTR

      ---         MODULE    ---      ---       ?C?IMUL
      010003D2H   PUBLIC    CODE     ---       ?C?IMUL

      ---         MODULE    ---      ---       ?C?UIDIV
      010003E4H   PUBLIC    CODE     ---       ?C?UIDIV

Program Size: data=37.0 xdata=0 const=27 code=2226
LX51 RUN COMPLETE.  0 WARNING(S),  0 ERROR(S)
